(i__main__
LogFile
p0
(dp1
S'_installed_files'
p2
(dp3
S'../../../../../../../../../sw/Gaudi/releases/GAUDI/GAUDI_v27r0/GaudiPolicy/cmt/fragments/__init__.py'
p4
S'../../../InstallArea/x86_64-slc6-gcc49-opt/python/Rich1MDCS/__init__.py'
p5
sS'../../../Rich/Rich1MDCS/x86_64-slc6-gcc49-opt/libRich1MDCS.so'
p6
S'../../../InstallArea/x86_64-slc6-gcc49-opt/lib/libRich1MDCS.so'
p7
sS'../../../Rich/Rich1MDCS/x86_64-slc6-gcc49-opt/genConf/Rich1MDCS'
p8
(dp9
S'../../../../Rich/Rich1MDCS/x86_64-slc6-gcc49-opt/genConf/Rich1MDCS/Rich1MDCSConf.py'
p10
S'../../../InstallArea/x86_64-slc6-gcc49-opt/python/Rich1MDCS/Rich1MDCSConf.py'
p11
ssS'../../../Rich/Rich1MDCS/scripts/PatternCleaning.exe'
p12
S'../../../InstallArea/x86_64-slc6-gcc49-opt/scripts/PatternCleaning.exe'
p13
sS'../../Rich/Rich1MDCS/python'
p14
(dp15
S'../../../Rich/Rich1MDCS/python/MDCSParameters_Run152409_MagnetUp_D_RadiusChange_1percent_0.xml'
p16
S'../../../InstallArea/x86_64-slc6-gcc49-opt/python/MDCSParameters_Run152409_MagnetUp_D_RadiusChange_1percent_0.xml'
p17
sS'../../../../Rich/Rich1MDCS/python/LSFJOB_772736395/STDOUT'
p18
S'../../../InstallArea/x86_64-slc6-gcc49-opt/python/LSFJOB_772736395/STDOUT'
p19
sS'../../../../Rich/Rich1MDCS/python/LSFJOB_777252357/LSFJOB'
p20
S'../../../InstallArea/x86_64-slc6-gcc49-opt/python/LSFJOB_777252357/LSFJOB'
p21
sS'../../../Rich/Rich1MDCS/python/output.txt'
p22
S'../../../InstallArea/x86_64-slc6-gcc49-opt/python/output.txt'
p23
sS'../../../Rich/Rich1MDCS/python/NTuples_Run152409_AllSteps.root'
p24
S'../../../InstallArea/x86_64-slc6-gcc49-opt/python/NTuples_Run152409_AllSteps.root'
p25
sS'../../../../Rich/Rich1MDCS/python/LSFJOB_772736395/LSFJOB'
p26
S'../../../InstallArea/x86_64-slc6-gcc49-opt/python/LSFJOB_772736395/LSFJOB'
p27
sS'../../../../Rich/Rich1MDCS/python/LSFJOB_777628752/STDOUT'
p28
S'../../../InstallArea/x86_64-slc6-gcc49-opt/python/LSFJOB_777628752/STDOUT'
p29
sS'../../../../Rich/Rich1MDCS/python/LSFJOB_777252357/STDOUT'
p30
S'../../../InstallArea/x86_64-slc6-gcc49-opt/python/LSFJOB_777252357/STDOUT'
p31
sS'../../../Rich/Rich1MDCS/python/MDCSParameters_Run152409_MagnetUp_U_RadiusChange_1percent_0.xml.previous'
p32
S'../../../InstallArea/x86_64-slc6-gcc49-opt/python/MDCSParameters_Run152409_MagnetUp_U_RadiusChange_1percent_0.xml.previous'
p33
sS'../../../Rich/Rich1MDCS/python/Histos_Run152409_AllSteps.root'
p34
S'../../../InstallArea/x86_64-slc6-gcc49-opt/python/Histos_Run152409_AllSteps.root'
p35
sS'../../../Rich/Rich1MDCS/python/NTuples_Run171282_AllSteps.root'
p36
S'../../../InstallArea/x86_64-slc6-gcc49-opt/python/NTuples_Run171282_AllSteps.root'
p37
sS'../../../Rich/Rich1MDCS/python/Histos_Run171282_AllSteps.root'
p38
S'../../../InstallArea/x86_64-slc6-gcc49-opt/python/Histos_Run171282_AllSteps.root'
p39
sS'../../../Rich/Rich1MDCS/python/MDCSParameters_Run152409_MagnetUp_U_RadiusChange_1percent_0.xml'
p40
S'../../../InstallArea/x86_64-slc6-gcc49-opt/python/MDCSParameters_Run152409_MagnetUp_U_RadiusChange_1percent_0.xml'
p41
sS'../../../Rich/Rich1MDCS/python/MDCSOutput_Run152409_MagnetDown_D_RadiusChange_1percent_0.root'
p42
S'../../../InstallArea/x86_64-slc6-gcc49-opt/python/MDCSOutput_Run152409_MagnetDown_D_RadiusChange_1percent_0.root'
p43
sS'../../../../Rich/Rich1MDCS/python/LSFJOB_775142398/STDOUT'
p44
S'../../../InstallArea/x86_64-slc6-gcc49-opt/python/LSFJOB_775142398/STDOUT'
p45
sS'../../../Rich/Rich1MDCS/python/MDCSOutput_Run152409_MagnetUp_D_RadiusChange_1percent_0.root'
p46
S'../../../InstallArea/x86_64-slc6-gcc49-opt/python/MDCSOutput_Run152409_MagnetUp_D_RadiusChange_1percent_0.root'
p47
sS'../../../../Rich/Rich1MDCS/python/LSFJOB_775142398/LSFJOB'
p48
S'../../../InstallArea/x86_64-slc6-gcc49-opt/python/LSFJOB_775142398/LSFJOB'
p49
sS'../../../Rich/Rich1MDCS/python/rawDataToNtuple.py'
p50
S'../../../InstallArea/x86_64-slc6-gcc49-opt/python/rawDataToNtuple.py'
p51
sS'../../../Rich/Rich1MDCS/python/MDCSParameters_Run152409_MagnetDown_D_RadiusChange_1percent_0.xml.previous'
p52
S'../../../InstallArea/x86_64-slc6-gcc49-opt/python/MDCSParameters_Run152409_MagnetDown_D_RadiusChange_1percent_0.xml.previous'
p53
sS'../../../Rich/Rich1MDCS/python/MDCSOutput_Run152409_MagnetUp_U_RadiusChange_1percent_0.root'
p54
S'../../../InstallArea/x86_64-slc6-gcc49-opt/python/MDCSOutput_Run152409_MagnetUp_U_RadiusChange_1percent_0.root'
p55
sS'../../../Rich/Rich1MDCS/python/runMDCSPeakFinder_ganga.py'
p56
S'../../../InstallArea/x86_64-slc6-gcc49-opt/python/runMDCSPeakFinder_ganga.py'
p57
sS'../../../Rich/Rich1MDCS/python/runMDCSParamFitter_Donal.py'
p58
S'../../../InstallArea/x86_64-slc6-gcc49-opt/python/runMDCSParamFitter_Donal.py'
p59
sS'../../../../Rich/Rich1MDCS/python/LSFJOB_777628752/LSFJOB'
p60
S'../../../InstallArea/x86_64-slc6-gcc49-opt/python/LSFJOB_777628752/LSFJOB'
p61
sS'../../../Rich/Rich1MDCS/python/MDCSParameters_Run152409_MagnetDown_D_RadiusChange_1percent_0.xml'
p62
S'../../../InstallArea/x86_64-slc6-gcc49-opt/python/MDCSParameters_Run152409_MagnetDown_D_RadiusChange_1percent_0.xml'
p63
sS'../../../Rich/Rich1MDCS/python/runMDCSPeakFinder.py'
p64
S'../../../InstallArea/x86_64-slc6-gcc49-opt/python/runMDCSPeakFinder.py'
p65
sS'../../../Rich/Rich1MDCS/python/runMDCSParamFitter.py'
p66
S'../../../InstallArea/x86_64-slc6-gcc49-opt/python/runMDCSParamFitter.py'
p67
sS'../../../Rich/Rich1MDCS/python/MDCSParameters_Run152409_MagnetUp_D_RadiusChange_1percent_0.xml.previous'
p68
S'../../../InstallArea/x86_64-slc6-gcc49-opt/python/MDCSParameters_Run152409_MagnetUp_D_RadiusChange_1percent_0.xml.previous'
p69
sssb.